; Function Attrs: mustprogress nounwind uwtable
define internal fastcc void @_ZZN4llvm16MemorySSAUpdater18applyInsertUpdatesENS_8ArrayRefINS_3cfg6UpdateIPNS_10BasicBlockEEEEERNS_13DominatorTreeEPKNS_9GraphDiffIS5_Lb0EEEEN8PredInfoD2Ev(ptr noundef nonnull align 8 dereferenceable(112) %0) unnamed_addr #0 align 2 {
  %2 = getelementptr inbounds nuw i8, ptr %0, i64 56
  %3 = getelementptr inbounds i8, ptr %0, i64 80
  %4 = tail call noundef i64 @_ZNK4llvm15SmallVectorBaseIjE4sizeEv(ptr noundef nonnull align 8 dereferenceable(16) %3) #15
  %5 = load ptr, ptr %3, align 8
  %6 = getelementptr inbounds i8, ptr %0, i64 96
  %7 = icmp eq ptr %5, %6
  br i1 %7, label %_ZN4llvm14SmallSetVectorIPNS_10BasicBlockELj2EED2Ev.exit, label %8

8:                                                ; preds = %1
  tail call void @free(ptr noundef %5) #15
  br label %_ZN4llvm14SmallSetVectorIPNS_10BasicBlockELj2EED2Ev.exit

_ZN4llvm14SmallSetVectorIPNS_10BasicBlockELj2EED2Ev.exit: ; preds = %1, %8
  %9 = load ptr, ptr %2, align 8
  %10 = getelementptr inbounds i8, ptr %0, i64 72
  %11 = load i32, ptr %10, align 8
  %12 = zext i32 %11 to i64
  %13 = shl nuw nsw i64 %12, 3
  tail call void @_ZN4llvm17deallocate_bufferEPvmm(ptr noundef %9, i64 noundef %13, i64 noundef 8) #15
  %14 = getelementptr inbounds nuw i8, ptr %0, i64 24
  %15 = tail call noundef i64 @_ZNK4llvm15SmallVectorBaseIjE4sizeEv(ptr noundef nonnull align 8 dereferenceable(16) %14) #15
  %16 = load ptr, ptr %14, align 8
  %17 = getelementptr inbounds i8, ptr %0, i64 40
  %18 = icmp eq ptr %16, %17
  br i1 %18, label %_ZN4llvm14SmallSetVectorIPNS_10BasicBlockELj2EED2Ev.exit1, label %19

19:                                               ; preds = %_ZN4llvm14SmallSetVectorIPNS_10BasicBlockELj2EED2Ev.exit
  tail call void @free(ptr noundef %16) #15
  br label %_ZN4llvm14SmallSetVectorIPNS_10BasicBlockELj2EED2Ev.exit1

_ZN4llvm14SmallSetVectorIPNS_10BasicBlockELj2EED2Ev.exit1: ; preds = %_ZN4llvm14SmallSetVectorIPNS_10BasicBlockELj2EED2Ev.exit, %19
  %20 = load ptr, ptr %0, align 8
  %21 = getelementptr inbounds nuw i8, ptr %0, i64 16
  %22 = load i32, ptr %21, align 8
  %23 = zext i32 %22 to i64
  %24 = shl nuw nsw i64 %23, 3
  tail call void @_ZN4llvm17deallocate_bufferEPvmm(ptr noundef %20, i64 noundef %24, i64 noundef 8) #15
  ret void
}